; Function Attrs: mustprogress nounwind uwtable
define internal void @"_ZN9grpc_core15InterceptorListISt10unique_ptrI19grpc_metadata_batchNS_5Arena13PooledDeleterEEE7MapImplIZNS_29LegacyServerCompressionFilter15MakeCallPromiseENS_8CallArgsESt8functionIFNS_12ArenaPromiseIS5_EES9_EEE3$_1ZNS6_10PrependMapISF_EEvT_NS_13DebugLocationEEUlvE_E7DestroyEPv"(ptr nocapture nonnull readnone align 8 %this, ptr nocapture noundef %memory) unnamed_addr #4 align 2 personality ptr @__gxx_personality_v0 {
entry:
  %add.ptr.i.i.i.i.i.i.i = getelementptr inbounds i8, ptr %memory, i64 24
  %0 = load ptr, ptr %add.ptr.i.i.i.i.i.i.i, align 8
  %cmp.not.i.i.i = icmp eq ptr %0, null
  br i1 %cmp.not.i.i.i, label %"_ZN9grpc_core14promise_detail11PromiseLikeINS0_7CurriedIZNS_29LegacyServerCompressionFilter15MakeCallPromiseENS_8CallArgsESt8functionIFNS_12ArenaPromiseISt10unique_ptrI19grpc_metadata_batchNS_5Arena13PooledDeleterEEEES4_EEE3$_1SB_EEvED2Ev.exit", label %if.then.i.i.i

if.then.i.i.i:                                    ; preds = %entry
  %arg_.i.i = getelementptr inbounds i8, ptr %memory, i64 16
  %1 = load i8, ptr %arg_.i.i, align 1
  %2 = and i8 %1, 1
  %tobool.not.i.i.i.i = icmp eq i8 %2, 0
  br i1 %tobool.not.i.i.i.i, label %"_ZN9grpc_core14promise_detail11PromiseLikeINS0_7CurriedIZNS_29LegacyServerCompressionFilter15MakeCallPromiseENS_8CallArgsESt8functionIFNS_12ArenaPromiseISt10unique_ptrI19grpc_metadata_batchNS_5Arena13PooledDeleterEEEES4_EEE3$_1SB_EEvED2Ev.exit", label %delete.notnull.i.i.i.i

delete.notnull.i.i.i.i:                           ; preds = %if.then.i.i.i
  tail call void @_ZN9grpc_core11MetadataMapI19grpc_metadata_batchJNS_16HttpPathMetadataENS_21HttpAuthorityMetadataENS_18HttpMethodMetadataENS_18HttpStatusMetadataENS_18HttpSchemeMetadataENS_19ContentTypeMetadataENS_10TeMetadataENS_20GrpcEncodingMetadataENS_27GrpcInternalEncodingRequestENS_26GrpcAcceptEncodingMetadataENS_18GrpcStatusMetadataENS_19GrpcTimeoutMetadataENS_31GrpcPreviousRpcAttemptsMetadataENS_27GrpcRetryPushbackMsMetadataENS_17UserAgentMetadataENS_19GrpcMessageMetadataENS_12HostMetadataENS_30EndpointLoadMetricsBinMetadataENS_26GrpcServerStatsBinMetadataENS_20GrpcTraceBinMetadataENS_19GrpcTagsBinMetadataENS_25GrpcLbClientStatsMetadataENS_17LbCostBinMetadataENS_15LbTokenMetadataENS_18XEnvoyPeerMetadataENS_22GrpcStreamNetworkStateENS_10PeerStringENS_17GrpcStatusContextENS_18GrpcStatusFromWireENS_20GrpcCallWasCancelledENS_12WaitForReadyENS_16GrpcTrailersOnlyENS_10GrpcTarPitENS_20GrpcRegisteredMethodEEED2Ev(ptr noundef nonnull align 8 dereferenceable(568) %0) #24
  tail call void @_ZdlPv(ptr noundef nonnull %0) #27
  br label %"_ZN9grpc_core14promise_detail11PromiseLikeINS0_7CurriedIZNS_29LegacyServerCompressionFilter15MakeCallPromiseENS_8CallArgsESt8functionIFNS_12ArenaPromiseISt10unique_ptrI19grpc_metadata_batchNS_5Arena13PooledDeleterEEEES4_EEE3$_1SB_EEvED2Ev.exit"

"_ZN9grpc_core14promise_detail11PromiseLikeINS0_7CurriedIZNS_29LegacyServerCompressionFilter15MakeCallPromiseENS_8CallArgsESt8functionIFNS_12ArenaPromiseISt10unique_ptrI19grpc_metadata_batchNS_5Arena13PooledDeleterEEEES4_EEE3$_1SB_EEvED2Ev.exit": ; preds = %entry, %if.then.i.i.i, %delete.notnull.i.i.i.i
  store ptr null, ptr %add.ptr.i.i.i.i.i.i.i, align 8
  ret void
}